target datalayout = "e-m:e-p270:32:32-p271:32:32-p272:64:64-i64:64-i128:128-f80:128-n8:16:32:64-S128"
target triple = "x86_64-pc-linux-gnu"

%class.Node = type <{ ptr, ptr, ptr, i32, i32, i32, i32, i32, i32, i32, [4 x i8] }>
%class.CallNode = type { %class.SafePointNode.base, ptr, ptr, float, ptr, ptr }
%class.SafePointNode.base = type <{ %class.MultiNode.base, [4 x i8], ptr, ptr, %class.ReplacedNodes, i8 }>
%class.MultiNode.base = type { %class.Node.base }
%class.Node.base = type <{ ptr, ptr, ptr, i32, i32, i32, i32, i32, i32, i32 }>
%class.ReplacedNodes = type { ptr }
%class.Type.base = type <{ ptr, ptr, i32 }>
%class.TypeFunc = type { %class.Type.base, ptr, ptr }
%class.TypeTuple = type { %class.Type.base, i32, ptr }

@_ZN10TypeRawPtr7NOTNULLE = external global ptr, align 8
@_ZN11TypeInstPtr7NOTNULLE = external global ptr, align 8

; Function Attrs: mustprogress nounwind uwtable
define linkonce_odr hidden noundef ptr @_ZNK8CallNode11entry_pointEv(ptr noundef nonnull align 8 dereferenceable(128) %0) #1 comdat align 2 {
  %2 = alloca ptr, align 8
  store ptr %0, ptr %2, align 8
  %3 = load ptr, ptr %2, align 8
  %4 = getelementptr inbounds %class.CallNode, ptr %3, i32 0, i32 2
  %5 = load ptr, ptr %4, align 8
  ret ptr %5
}

; Function Attrs: mustprogress nounwind uwtable
define linkonce_odr hidden noundef ptr @_ZNK4Node11as_CallLeafEv(ptr noundef nonnull align 8 dereferenceable(52) %0) #1 comdat align 2 {
  %2 = alloca ptr, align 8
  store ptr %0, ptr %2, align 8
  %3 = load ptr, ptr %2, align 8
  ret ptr %3
}

; Function Attrs: mustprogress nounwind uwtable
define linkonce_odr hidden noundef zeroext i1 @_ZNK4Node11is_CallLeafEv(ptr noundef nonnull align 8 dereferenceable(52) %0) #1 comdat align 2 {
  %2 = alloca ptr, align 8
  store ptr %0, ptr %2, align 8
  %3 = load ptr, ptr %2, align 8
  %4 = getelementptr inbounds %class.Node, ptr %3, i32 0, i32 8
  %5 = load i32, ptr %4, align 4
  %6 = and i32 %5, 63
  %7 = icmp eq i32 %6, 55
  ret i1 %7
}

; Function Attrs: mustprogress nounwind uwtable
define linkonce_odr hidden noundef ptr @_ZNK4Node2inEj(ptr noundef nonnull align 8 dereferenceable(52) %0, i32 noundef %1) #1 comdat align 2 {
  %3 = alloca ptr, align 8
  %4 = alloca i32, align 4
  store ptr %0, ptr %3, align 8
  store i32 %1, ptr %4, align 4
  %5 = load ptr, ptr %3, align 8
  %6 = getelementptr inbounds %class.Node, ptr %5, i32 0, i32 1
  %7 = load ptr, ptr %6, align 8
  %8 = load i32, ptr %4, align 4
  %9 = zext i32 %8 to i64
  %10 = getelementptr inbounds ptr, ptr %7, i64 %9
  %11 = load ptr, ptr %10, align 8
  ret ptr %11
}

; Function Attrs: mustprogress nounwind uwtable
define linkonce_odr hidden noundef i32 @_ZNK4Node3reqEv(ptr noundef nonnull align 8 dereferenceable(52) %0) #1 comdat align 2 {
  %2 = alloca ptr, align 8
  store ptr %0, ptr %2, align 8
  %3 = load ptr, ptr %2, align 8
  %4 = getelementptr inbounds %class.Node, ptr %3, i32 0, i32 3
  %5 = load i32, ptr %4, align 8
  ret i32 %5
}

; Function Attrs: mustprogress nounwind uwtable
define linkonce_odr hidden noundef i32 @_ZNK9TypeTuple3cntEv(ptr noundef nonnull align 8 dereferenceable(32) %0) #1 comdat align 2 {
  %2 = alloca ptr, align 8
  store ptr %0, ptr %2, align 8
  %3 = load ptr, ptr %2, align 8
  %4 = getelementptr inbounds %class.TypeTuple, ptr %3, i32 0, i32 1
  %5 = load i32, ptr %4, align 4
  ret i32 %5
}

; Function Attrs: mustprogress nounwind uwtable
define linkonce_odr hidden noundef ptr @_ZNK8TypeFunc6domainEv(ptr noundef nonnull align 8 dereferenceable(40) %0) #1 comdat align 2 {
  %2 = alloca ptr, align 8
  store ptr %0, ptr %2, align 8
  %3 = load ptr, ptr %2, align 8
  %4 = getelementptr inbounds %class.TypeFunc, ptr %3, i32 0, i32 1
  %5 = load ptr, ptr %4, align 8
  ret ptr %5
}

; Function Attrs: mustprogress nounwind uwtable
define hidden noundef ptr @_ZN22ShenandoahBarrierSetC230write_ref_field_pre_entry_TypeEv() #1 align 2 {
  %1 = alloca ptr, align 8
  %2 = alloca ptr, align 8
  %3 = alloca ptr, align 8
  %4 = call noundef ptr @_ZN9TypeTuple6fieldsEj(i32 noundef 2)
  store ptr %4, ptr %1, align 8
  %5 = load ptr, ptr @_ZN11TypeInstPtr7NOTNULLE, align 8
  %6 = load ptr, ptr %1, align 8
  %7 = getelementptr inbounds ptr, ptr %6, i64 5
  store ptr %5, ptr %7, align 8
  %8 = load ptr, ptr @_ZN10TypeRawPtr7NOTNULLE, align 8
  %9 = load ptr, ptr %1, align 8
  %10 = getelementptr inbounds ptr, ptr %9, i64 6
  store ptr %8, ptr %10, align 8
  %11 = load ptr, ptr %1, align 8
  %12 = call noundef ptr @_ZN9TypeTuple4makeEjPPK4Type(i32 noundef 7, ptr noundef %11)
  store ptr %12, ptr %2, align 8
  %13 = call noundef ptr @_ZN9TypeTuple6fieldsEj(i32 noundef 0)
  store ptr %13, ptr %1, align 8
  %14 = load ptr, ptr %1, align 8
  %15 = call noundef ptr @_ZN9TypeTuple4makeEjPPK4Type(i32 noundef 5, ptr noundef %14)
  store ptr %15, ptr %3, align 8
  %16 = load ptr, ptr %2, align 8
  %17 = load ptr, ptr %3, align 8
  %18 = call noundef ptr @_ZN8TypeFunc4makeEPK9TypeTupleS2_(ptr noundef %16, ptr noundef %17)
  ret ptr %18
}

; Function Attrs: mustprogress nounwind uwtable
define hidden noundef zeroext i1 @_ZN22ShenandoahBarrierSetC225is_shenandoah_wb_pre_callEP4Node(ptr noundef %0) #1 align 2 {
  %2 = alloca ptr, align 8
  store ptr %0, ptr %2, align 8
  %3 = load ptr, ptr %2, align 8
  %4 = call noundef zeroext i1 @_ZNK4Node11is_CallLeafEv(ptr noundef nonnull align 8 dereferenceable(52) %3)
  br i1 %4, label %5, label %10

5:                                                ; preds = %1
  %6 = load ptr, ptr %2, align 8
  %7 = call noundef ptr @_ZNK4Node11as_CallLeafEv(ptr noundef nonnull align 8 dereferenceable(52) %6)
  %8 = call noundef ptr @_ZNK8CallNode11entry_pointEv(ptr noundef nonnull align 8 dereferenceable(128) %7)
  %9 = icmp eq ptr %8, @_ZN17ShenandoahRuntime25write_ref_field_pre_entryEP7oopDescP10JavaThread
  br label %10

10:                                               ; preds = %5, %1
  %11 = phi i1 [ false, %1 ], [ %9, %5 ]
  ret i1 %11
}

; Function Attrs: mustprogress nounwind uwtable
define linkonce_odr hidden noundef ptr @_ZNK4Node7as_CallEv(ptr noundef nonnull align 8 dereferenceable(52) %0) #1 comdat align 2 {
  %2 = alloca ptr, align 8
  store ptr %0, ptr %2, align 8
  %3 = load ptr, ptr %2, align 8
  ret ptr %3
}

; Function Attrs: mustprogress nounwind uwtable
define hidden noundef zeroext i1 @_ZNK22ShenandoahBarrierSetC221final_graph_reshapingEP7CompileP4NodejR16Unique_Node_List(ptr noundef nonnull align 8 dereferenceable(8) %0, ptr noundef %1, ptr noundef %2, i32 noundef %3, ptr noundef nonnull align 8 dereferenceable(68) %4) unnamed_addr #1 align 2 {
  %6 = alloca i1, align 1
  %7 = alloca ptr, align 8
  %8 = alloca ptr, align 8
  %9 = alloca ptr, align 8
  %10 = alloca i32, align 4
  %11 = alloca ptr, align 8
  %12 = alloca ptr, align 8
  %13 = alloca i32, align 4
  %14 = alloca ptr, align 8
  store ptr %0, ptr %7, align 8
  store ptr %1, ptr %8, align 8
  store ptr %2, ptr %9, align 8
  store i32 %3, ptr %10, align 4
  store ptr %4, ptr %11, align 8
  %15 = load i32, ptr %10, align 4
  switch i32 %15, label %39 [
    i32 48, label %16
    i32 49, label %16
    i32 306, label %37
    i32 305, label %37
    i32 307, label %37
    i32 308, label %37
    i32 303, label %37
    i32 304, label %37
    i32 310, label %38
  ]

16:                                               ; preds = %5, %5
  %17 = load ptr, ptr %9, align 8
  %18 = call noundef ptr @_ZNK4Node7as_CallEv(ptr noundef nonnull align 8 dereferenceable(52) %17)
  store ptr %18, ptr %12, align 8
  %19 = load ptr, ptr %12, align 8
  %20 = call noundef zeroext i1 @_ZN22ShenandoahBarrierSetC225is_shenandoah_wb_pre_callEP4Node(ptr noundef %19)
  br i1 %20, label %21, label %36

21:                                               ; preds = %16
  %22 = call noundef ptr @_ZN22ShenandoahBarrierSetC230write_ref_field_pre_entry_TypeEv()
  %23 = call noundef ptr @_ZNK8TypeFunc6domainEv(ptr noundef nonnull align 8 dereferenceable(40) %22)
  %24 = call noundef i32 @_ZNK9TypeTuple3cntEv(ptr noundef nonnull align 8 dereferenceable(32) %23)
  store i32 %24, ptr %13, align 4
  %25 = load ptr, ptr %12, align 8
  %26 = call noundef i32 @_ZNK4Node3reqEv(ptr noundef nonnull align 8 dereferenceable(52) %25)
  %27 = load i32, ptr %13, align 4
  %28 = icmp ugt i32 %26, %27
  br i1 %28, label %29, label %35

29:                                               ; preds = %21
  %30 = load ptr, ptr %12, align 8
  %31 = load i32, ptr %13, align 4
  %32 = call noundef ptr @_ZNK4Node2inEj(ptr noundef nonnull align 8 dereferenceable(52) %30, i32 noundef %31)
  store ptr %32, ptr %14, align 8
  %33 = load ptr, ptr %12, align 8
  %34 = load i32, ptr %13, align 4
  call void @_ZN4Node7del_reqEj(ptr noundef nonnull align 8 dereferenceable(52) %33, i32 noundef %34)
  br label %35

35:                                               ; preds = %29, %21
  br label %36

36:                                               ; preds = %35, %16
  store i1 false, ptr %6, align 1
  br label %40

37:                                               ; preds = %5, %5, %5, %5, %5, %5
  store i1 true, ptr %6, align 1
  br label %40

38:                                               ; preds = %5
  store i1 true, ptr %6, align 1
  br label %40

39:                                               ; preds = %5
  store i1 false, ptr %6, align 1
  br label %40

40:                                               ; preds = %39, %38, %37, %36
  %41 = load i1, ptr %6, align 1
  ret i1 %41
}