; Function Attrs: mustprogress nounwind uwtable
define hidden noundef zeroext i1 @_ZNK22ShenandoahBarrierSetC221final_graph_reshapingEP7CompileP4NodejR16Unique_Node_List(ptr nocapture nonnull readnone align 8 %0, ptr nocapture readnone %1, ptr noundef %2, i32 noundef %3, ptr nocapture nonnull readnone align 8 %4) unnamed_addr #1 align 2 {
  switch i32 %3, label %32 [
    i32 48, label %6
    i32 49, label %6
    i32 306, label %_ZN22ShenandoahBarrierSetC225is_shenandoah_wb_pre_callEP4Node.exit.thread
    i32 305, label %_ZN22ShenandoahBarrierSetC225is_shenandoah_wb_pre_callEP4Node.exit.thread
    i32 307, label %_ZN22ShenandoahBarrierSetC225is_shenandoah_wb_pre_callEP4Node.exit.thread
    i32 308, label %_ZN22ShenandoahBarrierSetC225is_shenandoah_wb_pre_callEP4Node.exit.thread
    i32 303, label %_ZN22ShenandoahBarrierSetC225is_shenandoah_wb_pre_callEP4Node.exit.thread
    i32 304, label %_ZN22ShenandoahBarrierSetC225is_shenandoah_wb_pre_callEP4Node.exit.thread
    i32 310, label %_ZN22ShenandoahBarrierSetC225is_shenandoah_wb_pre_callEP4Node.exit.thread
  ]

6:                                                ; preds = %5, %5
  %7 = getelementptr inbounds i8, ptr %2, i64 44
  %8 = load i32, ptr %7, align 4
  %9 = and i32 %8, 63
  %10 = icmp eq i32 %9, 55
  br i1 %10, label %_ZN22ShenandoahBarrierSetC225is_shenandoah_wb_pre_callEP4Node.exit, label %_ZN22ShenandoahBarrierSetC225is_shenandoah_wb_pre_callEP4Node.exit.thread

_ZN22ShenandoahBarrierSetC225is_shenandoah_wb_pre_callEP4Node.exit: ; preds = %6
  %11 = getelementptr inbounds i8, ptr %2, i64 96
  %12 = load ptr, ptr %11, align 8
  %13 = icmp eq ptr %12, @_ZN17ShenandoahRuntime25write_ref_field_pre_entryEP7oopDescP10JavaThread
  br i1 %13, label %14, label %_ZN22ShenandoahBarrierSetC225is_shenandoah_wb_pre_callEP4Node.exit.thread

14:                                               ; preds = %_ZN22ShenandoahBarrierSetC225is_shenandoah_wb_pre_callEP4Node.exit
  %15 = tail call noundef ptr @_ZN9TypeTuple6fieldsEj(i32 noundef 2) #14
  %16 = load ptr, ptr @_ZN11TypeInstPtr7NOTNULLE, align 8
  %17 = getelementptr inbounds i8, ptr %15, i64 40
  store ptr %16, ptr %17, align 8
  %18 = load ptr, ptr @_ZN10TypeRawPtr7NOTNULLE, align 8
  %19 = getelementptr inbounds i8, ptr %15, i64 48
  store ptr %18, ptr %19, align 8
  %20 = tail call noundef ptr @_ZN9TypeTuple4makeEjPPK4Type(i32 noundef 7, ptr noundef %15) #14
  %21 = tail call noundef ptr @_ZN9TypeTuple6fieldsEj(i32 noundef 0) #14
  %22 = tail call noundef ptr @_ZN9TypeTuple4makeEjPPK4Type(i32 noundef 5, ptr noundef %21) #14
  %23 = tail call noundef ptr @_ZN8TypeFunc4makeEPK9TypeTupleS2_(ptr noundef %20, ptr noundef %22) #14
  %24 = getelementptr inbounds i8, ptr %23, i64 24
  %25 = load ptr, ptr %24, align 8
  %26 = getelementptr inbounds i8, ptr %25, i64 20
  %27 = load i32, ptr %26, align 4
  %28 = getelementptr inbounds i8, ptr %2, i64 24
  %29 = load i32, ptr %28, align 8
  %30 = icmp ugt i32 %29, %27
  br i1 %30, label %31, label %_ZN22ShenandoahBarrierSetC225is_shenandoah_wb_pre_callEP4Node.exit.thread

31:                                               ; preds = %14
  tail call void @_ZN4Node7del_reqEj(ptr noundef nonnull align 8 dereferenceable(52) %2, i32 noundef %27) #14
  br label %_ZN22ShenandoahBarrierSetC225is_shenandoah_wb_pre_callEP4Node.exit.thread

32:                                               ; preds = %5
  br label %_ZN22ShenandoahBarrierSetC225is_shenandoah_wb_pre_callEP4Node.exit.thread

_ZN22ShenandoahBarrierSetC225is_shenandoah_wb_pre_callEP4Node.exit.thread: ; preds = %6, %5, %5, %5, %5, %5, %5, %5, %_ZN22ShenandoahBarrierSetC225is_shenandoah_wb_pre_callEP4Node.exit, %31, %14, %32
  %.0 = phi i1 [ false, %32 ], [ false, %14 ], [ false, %31 ], [ false, %_ZN22ShenandoahBarrierSetC225is_shenandoah_wb_pre_callEP4Node.exit ], [ true, %5 ], [ true, %5 ], [ true, %5 ], [ true, %5 ], [ true, %5 ], [ true, %5 ], [ true, %5 ], [ false, %6 ]
  ret i1 %.0
}